target datalayout = "e-m:e-p270:32:32-p271:32:32-p272:64:64-i64:64-i128:128-f80:128-n8:16:32:64-S128"
target triple = "x86_64-pc-linux-gnu"

%struct.expert_field = type { i32, i32 }
%struct.MessageHeader = type { [4 x i8], %struct.Version, i8, i8, i32, i32, i32, ptr }
%struct.Version = type { i8, i8 }

@hf_Tango_Device_2_command_inout_2_command = internal global i32 0, align 4
@hf_Tango_Device_2_command_inout_2_source = internal global i32 0, align 4
@ei_tango_unknown_giop_msg = internal global %struct.expert_field zeroinitializer, align 4
@ei_tango_unknown_exception = internal global %struct.expert_field zeroinitializer, align 4
@boundary = internal global i32 12, align 4
@.str.771 = private unnamed_addr constant [21 x i8] c"Unknown exception %d\00", align 1
@.str.772 = private unnamed_addr constant [24 x i8] c"Unknown GIOP message %d\00", align 1

; Function Attrs: null_pointer_is_valid sspstrong uwtable
define internal void @decode_Tango_Device_2_command_inout_2(ptr noundef %0, ptr noundef %1, ptr noundef %2, ptr noundef %3, ptr noundef %4, ptr noundef %5, ptr noundef %6, i1 noundef zeroext %7) #0 {
  %9 = alloca ptr, align 8
  %10 = alloca ptr, align 8
  %11 = alloca ptr, align 8
  %12 = alloca ptr, align 8
  %13 = alloca ptr, align 8
  %14 = alloca ptr, align 8
  %15 = alloca ptr, align 8
  %16 = alloca i8, align 1
  %17 = alloca i32, align 4
  store ptr %0, ptr %9, align 8
  store ptr %1, ptr %10, align 8
  store ptr %2, ptr %11, align 8
  store ptr %3, ptr %12, align 8
  store ptr %4, ptr %13, align 8
  store ptr %5, ptr %14, align 8
  store ptr %6, ptr %15, align 8
  %18 = zext i1 %7 to i8
  store i8 %18, ptr %16, align 1
  call void @llvm.lifetime.start.p0(i64 4, ptr %17) #6
  %19 = load ptr, ptr %14, align 8
  %20 = getelementptr inbounds nuw %struct.MessageHeader, ptr %19, i32 0, i32 3
  %21 = load i8, ptr %20, align 1
  %22 = zext i8 %21 to i32
  switch i32 %22, label %76 [
    i32 0, label %23
    i32 1, label %54
  ]

23:                                               ; preds = %8
  %24 = load ptr, ptr %11, align 8
  %25 = load ptr, ptr %9, align 8
  %26 = load ptr, ptr %13, align 8
  %27 = load i8, ptr %16, align 1, !range !6, !noundef !7
  %28 = trunc i8 %27 to i1
  %29 = load i32, ptr @boundary, align 4
  %30 = load i32, ptr @hf_Tango_Device_2_command_inout_2_command, align 4
  call void @giop_add_CDR_string(ptr noundef %24, ptr noundef %25, ptr noundef %26, i1 noundef zeroext %28, i32 noundef %29, i32 noundef %30)
  %31 = load ptr, ptr %9, align 8
  %32 = load ptr, ptr %10, align 8
  %33 = load ptr, ptr %11, align 8
  %34 = load ptr, ptr %12, align 8
  %35 = load ptr, ptr %13, align 8
  %36 = load i8, ptr %16, align 1, !range !6, !noundef !7
  %37 = trunc i8 %36 to i1
  %38 = load i32, ptr @boundary, align 4
  %39 = load ptr, ptr %14, align 8
  call void @get_CDR_any(ptr noundef %31, ptr noundef %32, ptr noundef %33, ptr noundef %34, ptr noundef %35, i1 noundef zeroext %37, i32 noundef %38, ptr noundef %39)
  %40 = load ptr, ptr %9, align 8
  %41 = load ptr, ptr %13, align 8
  %42 = load i8, ptr %16, align 1, !range !6, !noundef !7
  %43 = trunc i8 %42 to i1
  %44 = load i32, ptr @boundary, align 4
  %45 = call i32 @get_CDR_enum(ptr noundef %40, ptr noundef %41, i1 noundef zeroext %43, i32 noundef %44)
  store i32 %45, ptr %17, align 4
  %46 = load ptr, ptr %11, align 8
  %47 = load i32, ptr @hf_Tango_Device_2_command_inout_2_source, align 4
  %48 = load ptr, ptr %9, align 8
  %49 = load ptr, ptr %13, align 8
  %50 = load i32, ptr %49, align 4
  %51 = sub i32 %50, 4
  %52 = load i32, ptr %17, align 4
  %53 = call ptr @proto_tree_add_uint(ptr noundef %46, i32 noundef %47, ptr noundef %48, i32 noundef %51, i32 noundef 4, i32 noundef %52)
  br label %84

54:                                               ; preds = %8
  %55 = load ptr, ptr %14, align 8
  %56 = getelementptr inbounds nuw %struct.MessageHeader, ptr %55, i32 0, i32 6
  %57 = load i32, ptr %56, align 8
  switch i32 %57, label %68 [
    i32 0, label %58
    i32 1, label %75
  ]

58:                                               ; preds = %54
  %59 = load ptr, ptr %9, align 8
  %60 = load ptr, ptr %10, align 8
  %61 = load ptr, ptr %11, align 8
  %62 = load ptr, ptr %12, align 8
  %63 = load ptr, ptr %13, align 8
  %64 = load i8, ptr %16, align 1, !range !6, !noundef !7
  %65 = trunc i8 %64 to i1
  %66 = load i32, ptr @boundary, align 4
  %67 = load ptr, ptr %14, align 8
  call void @get_CDR_any(ptr noundef %59, ptr noundef %60, ptr noundef %61, ptr noundef %62, ptr noundef %63, i1 noundef zeroext %65, i32 noundef %66, ptr noundef %67)
  br label %75

68:                                               ; preds = %54
  %69 = load ptr, ptr %10, align 8
  %70 = load ptr, ptr %12, align 8
  %71 = load ptr, ptr %14, align 8
  %72 = getelementptr inbounds nuw %struct.MessageHeader, ptr %71, i32 0, i32 6
  %73 = load i32, ptr %72, align 8
  %74 = call ptr (ptr, ptr, ptr, ptr, ...) @expert_add_info_format(ptr noundef %69, ptr noundef %70, ptr noundef @ei_tango_unknown_exception, ptr noundef @.str.771, i32 noundef %73)
  br label %75

75:                                               ; preds = %68, %54, %58
  br label %84

76:                                               ; preds = %8
  %77 = load ptr, ptr %10, align 8
  %78 = load ptr, ptr %12, align 8
  %79 = load ptr, ptr %14, align 8
  %80 = getelementptr inbounds nuw %struct.MessageHeader, ptr %79, i32 0, i32 3
  %81 = load i8, ptr %80, align 1
  %82 = zext i8 %81 to i32
  %83 = call ptr (ptr, ptr, ptr, ptr, ...) @expert_add_info_format(ptr noundef %77, ptr noundef %78, ptr noundef @ei_tango_unknown_giop_msg, ptr noundef @.str.772, i32 noundef %82)
  br label %84

84:                                               ; preds = %76, %75, %23
  call void @llvm.lifetime.end.p0(i64 4, ptr %17) #6
  ret void
}