; Function Attrs: null_pointer_is_valid sspstrong uwtable
define internal fastcc void @decode_Tango_Device_2_command_inout_2(ptr noundef %0, ptr noundef %1, ptr noundef %2, ptr noundef %3, ptr noundef %4, ptr noundef %5, i1 noundef zeroext %6) unnamed_addr #0 {
  %8 = getelementptr inbounds nuw i8, ptr %5, i64 7
  %9 = load i8, ptr %8, align 1
  switch i8 %9, label %23 [
    i8 0, label %10
    i8 1, label %17
  ]

10:                                               ; preds = %7
  %11 = load i32, ptr @hf_Tango_Device_2_command_inout_2_command, align 4
  tail call void @giop_add_CDR_string(ptr noundef %2, ptr noundef %0, ptr noundef %4, i1 noundef zeroext %6, i32 noundef 12, i32 noundef %11)
  tail call void @get_CDR_any(ptr noundef %0, ptr noundef %1, ptr noundef %2, ptr noundef %3, ptr noundef %4, i1 noundef zeroext %6, i32 noundef 12, ptr noundef %5)
  %12 = tail call i32 @get_CDR_enum(ptr noundef %0, ptr noundef %4, i1 noundef zeroext %6, i32 noundef 12)
  %13 = load i32, ptr @hf_Tango_Device_2_command_inout_2_source, align 4
  %14 = load i32, ptr %4, align 4
  %15 = add i32 %14, -4
  %16 = tail call ptr @proto_tree_add_uint(ptr noundef %2, i32 noundef %13, ptr noundef %0, i32 noundef %15, i32 noundef 4, i32 noundef %12)
  br label %26

17:                                               ; preds = %7
  %18 = getelementptr inbounds nuw i8, ptr %5, i64 16
  %19 = load i32, ptr %18, align 8
  switch i32 %19, label %21 [
    i32 0, label %20
    i32 1, label %26
  ]

20:                                               ; preds = %17
  tail call void @get_CDR_any(ptr noundef %0, ptr noundef %1, ptr noundef %2, ptr noundef %3, ptr noundef %4, i1 noundef zeroext %6, i32 noundef 12, ptr noundef %5)
  br label %26

21:                                               ; preds = %17
  %22 = tail call ptr (ptr, ptr, ptr, ptr, ...) @expert_add_info_format(ptr noundef %1, ptr noundef %3, ptr noundef nonnull @ei_tango_unknown_exception, ptr noundef nonnull @.str.771, i32 noundef %19)
  br label %26

23:                                               ; preds = %7
  %24 = zext i8 %9 to i32
  %25 = tail call ptr (ptr, ptr, ptr, ptr, ...) @expert_add_info_format(ptr noundef %1, ptr noundef %3, ptr noundef nonnull @ei_tango_unknown_giop_msg, ptr noundef nonnull @.str.772, i32 noundef %24)
  br label %26

26:                                               ; preds = %17, %20, %21, %23, %10
  ret void
}